#include <math.h>
#include <stdio.h>
#include <stdlib.h>
#include <string.h>

int main()
{
int n,k,sz[1000];
scanf("%d %d",&n,&k);
for(int i=0;i<n;i++){
        scanf("%d",&sz[i]);
        }
for(int j=0;j<n-1;j++){
        for(int l=j+1;l<n;l++){
                if(sz[j]+sz[l]==k){
                                  printf("yes");
                                  return 0;
                                  }
                }
        }
        printf("no");
  return 0;
}